target datalayout = "e-m:e-p270:32:32-p271:32:32-p272:64:64-i64:64-i128:128-f80:128-n8:16:32:64-S128"
target triple = "x86_64-pc-linux-gnu"

%struct.Ssw_Cla_t_ = type { ptr, ptr, ptr, i32, i32, i32, i32, ptr, ptr, ptr, ptr, ptr, ptr, ptr, ptr, ptr }
%struct.Aig_Man_t_ = type { ptr, ptr, ptr, ptr, ptr, ptr, ptr, %struct.Aig_Obj_t_, i32, i32, i32, i32, i32, i32, [7 x i32], i32, ptr, i32, ptr, i32, ptr, i32, i32, i32, ptr, i32, i32, i32, i32, i32, ptr, ptr, i32, ptr, ptr, i32, ptr, ptr, i32, i32, i32, ptr, ptr, ptr, ptr, ptr, ptr, ptr, ptr, ptr, ptr, ptr, ptr, ptr, ptr, i32, ptr, ptr, ptr, ptr, i32, i64, i64, i64, ptr, ptr }
%struct.Aig_Obj_t_ = type { %union.anon, ptr, ptr, i64, i32, i32, %union.anon.0 }
%union.anon = type { ptr }
%union.anon.0 = type { ptr }

; Function Attrs: inlinehint nounwind uwtable
define internal ptr @Aig_ManConst1(ptr noundef %0) #5 {
  %2 = alloca ptr, align 8
  store ptr %0, ptr %2, align 8, !tbaa !3
  %3 = load ptr, ptr %2, align 8, !tbaa !3
  %4 = getelementptr inbounds nuw %struct.Aig_Man_t_, ptr %3, i32 0, i32 6
  %5 = load ptr, ptr %4, align 8, !tbaa !109
  ret ptr %5
}

; Function Attrs: inlinehint nounwind uwtable
define internal void @Aig_ObjSetRepr(ptr noundef %0, ptr noundef %1, ptr noundef %2) #5 {
  %4 = alloca ptr, align 8
  %5 = alloca ptr, align 8
  %6 = alloca ptr, align 8
  store ptr %0, ptr %4, align 8, !tbaa !3
  store ptr %1, ptr %5, align 8, !tbaa !48
  store ptr %2, ptr %6, align 8, !tbaa !48
  %7 = load ptr, ptr %6, align 8, !tbaa !48
  %8 = load ptr, ptr %4, align 8, !tbaa !3
  %9 = getelementptr inbounds nuw %struct.Aig_Man_t_, ptr %8, i32 0, i32 31
  %10 = load ptr, ptr %9, align 8, !tbaa !22
  %11 = load ptr, ptr %5, align 8, !tbaa !48
  %12 = getelementptr inbounds nuw %struct.Aig_Obj_t_, ptr %11, i32 0, i32 5
  %13 = load i32, ptr %12, align 4, !tbaa !50
  %14 = sext i32 %13 to i64
  %15 = getelementptr inbounds ptr, ptr %10, i64 %14
  store ptr %7, ptr %15, align 8, !tbaa !48
  ret void
}

; Function Attrs: inlinehint nounwind uwtable
define internal i32 @Ssw_ObjIsConst1Cand(ptr noundef %0, ptr noundef %1) #5 {
  %3 = alloca ptr, align 8
  %4 = alloca ptr, align 8
  store ptr %0, ptr %3, align 8, !tbaa !3
  store ptr %1, ptr %4, align 8, !tbaa !48
  %5 = load ptr, ptr %3, align 8, !tbaa !3
  %6 = load ptr, ptr %4, align 8, !tbaa !48
  %7 = call ptr @Aig_ObjRepr(ptr noundef %5, ptr noundef %6)
  %8 = load ptr, ptr %3, align 8, !tbaa !3
  %9 = call ptr @Aig_ManConst1(ptr noundef %8)
  %10 = icmp eq ptr %7, %9
  %11 = zext i1 %10 to i32
  ret i32 %11
}

; Function Attrs: inlinehint nounwind uwtable
define internal ptr @Aig_ObjRepr(ptr noundef %0, ptr noundef %1) #5 {
  %3 = alloca ptr, align 8
  %4 = alloca ptr, align 8
  store ptr %0, ptr %3, align 8, !tbaa !3
  store ptr %1, ptr %4, align 8, !tbaa !48
  %5 = load ptr, ptr %3, align 8, !tbaa !3
  %6 = getelementptr inbounds nuw %struct.Aig_Man_t_, ptr %5, i32 0, i32 31
  %7 = load ptr, ptr %6, align 8, !tbaa !22
  %8 = icmp ne ptr %7, null
  br i1 %8, label %9, label %19

9:                                                ; preds = %2
  %10 = load ptr, ptr %3, align 8, !tbaa !3
  %11 = getelementptr inbounds nuw %struct.Aig_Man_t_, ptr %10, i32 0, i32 31
  %12 = load ptr, ptr %11, align 8, !tbaa !22
  %13 = load ptr, ptr %4, align 8, !tbaa !48
  %14 = getelementptr inbounds nuw %struct.Aig_Obj_t_, ptr %13, i32 0, i32 5
  %15 = load i32, ptr %14, align 4, !tbaa !50
  %16 = sext i32 %15 to i64
  %17 = getelementptr inbounds ptr, ptr %12, i64 %16
  %18 = load ptr, ptr %17, align 8, !tbaa !48
  br label %20

19:                                               ; preds = %2
  br label %20

20:                                               ; preds = %19, %9
  %21 = phi ptr [ %18, %9 ], [ null, %19 ]
  ret ptr %21
}

; Function Attrs: nounwind uwtable
define void @Ssw_ClassesRemoveNode(ptr noundef %0, ptr noundef %1) #0 {
  %3 = alloca ptr, align 8
  %4 = alloca ptr, align 8
  %5 = alloca ptr, align 8
  %6 = alloca ptr, align 8
  %7 = alloca i32, align 4
  %8 = alloca i32, align 4
  %9 = alloca i32, align 4
  store ptr %0, ptr %3, align 8, !tbaa !8
  store ptr %1, ptr %4, align 8, !tbaa !48
  call void @llvm.lifetime.start.p0(i64 8, ptr %5) #11
  call void @llvm.lifetime.start.p0(i64 8, ptr %6) #11
  %10 = load ptr, ptr %3, align 8, !tbaa !8
  %11 = getelementptr inbounds nuw %struct.Ssw_Cla_t_, ptr %10, i32 0, i32 0
  %12 = load ptr, ptr %11, align 8, !tbaa !10
  %13 = load ptr, ptr %4, align 8, !tbaa !48
  %14 = call ptr @Aig_ObjRepr(ptr noundef %12, ptr noundef %13)
  store ptr %14, ptr %5, align 8, !tbaa !48
  %15 = load ptr, ptr %3, align 8, !tbaa !8
  %16 = getelementptr inbounds nuw %struct.Ssw_Cla_t_, ptr %15, i32 0, i32 0
  %17 = load ptr, ptr %16, align 8, !tbaa !10
  %18 = load ptr, ptr %4, align 8, !tbaa !48
  %19 = call i32 @Ssw_ObjIsConst1Cand(ptr noundef %17, ptr noundef %18)
  %20 = icmp ne i32 %19, 0
  br i1 %20, label %21, label %30

21:                                               ; preds = %2
  %22 = load ptr, ptr %3, align 8, !tbaa !8
  %23 = getelementptr inbounds nuw %struct.Ssw_Cla_t_, ptr %22, i32 0, i32 0
  %24 = load ptr, ptr %23, align 8, !tbaa !10
  %25 = load ptr, ptr %4, align 8, !tbaa !48
  call void @Aig_ObjSetRepr(ptr noundef %24, ptr noundef %25, ptr noundef null)
  %26 = load ptr, ptr %3, align 8, !tbaa !8
  %27 = getelementptr inbounds nuw %struct.Ssw_Cla_t_, ptr %26, i32 0, i32 5
  %28 = load i32, ptr %27, align 8, !tbaa !45
  %29 = add nsw i32 %28, -1
  store i32 %29, ptr %27, align 8, !tbaa !45
  store i32 1, ptr %7, align 4
  br label %139

30:                                               ; preds = %2
  %31 = load ptr, ptr %3, align 8, !tbaa !8
  %32 = getelementptr inbounds nuw %struct.Ssw_Cla_t_, ptr %31, i32 0, i32 0
  %33 = load ptr, ptr %32, align 8, !tbaa !10
  %34 = load ptr, ptr %4, align 8, !tbaa !48
  call void @Aig_ObjSetRepr(ptr noundef %33, ptr noundef %34, ptr noundef null)
  %35 = load ptr, ptr %3, align 8, !tbaa !8
  %36 = getelementptr inbounds nuw %struct.Ssw_Cla_t_, ptr %35, i32 0, i32 2
  %37 = load ptr, ptr %36, align 8, !tbaa !18
  %38 = load ptr, ptr %5, align 8, !tbaa !48
  %39 = getelementptr inbounds nuw %struct.Aig_Obj_t_, ptr %38, i32 0, i32 5
  %40 = load i32, ptr %39, align 4, !tbaa !50
  %41 = sext i32 %40 to i64
  %42 = getelementptr inbounds i32, ptr %37, i64 %41
  %43 = load i32, ptr %42, align 4, !tbaa !33
  %44 = icmp eq i32 %43, 2
  br i1 %44, label %45, label %70

45:                                               ; preds = %30
  %46 = load ptr, ptr %3, align 8, !tbaa !8
  %47 = getelementptr inbounds nuw %struct.Ssw_Cla_t_, ptr %46, i32 0, i32 1
  %48 = load ptr, ptr %47, align 8, !tbaa !17
  %49 = load ptr, ptr %5, align 8, !tbaa !48
  %50 = getelementptr inbounds nuw %struct.Aig_Obj_t_, ptr %49, i32 0, i32 5
  %51 = load i32, ptr %50, align 4, !tbaa !50
  %52 = sext i32 %51 to i64
  %53 = getelementptr inbounds ptr, ptr %48, i64 %52
  store ptr null, ptr %53, align 8, !tbaa !51
  %54 = load ptr, ptr %3, align 8, !tbaa !8
  %55 = getelementptr inbounds nuw %struct.Ssw_Cla_t_, ptr %54, i32 0, i32 4
  %56 = load i32, ptr %55, align 4, !tbaa !46
  %57 = add nsw i32 %56, -1
  store i32 %57, ptr %55, align 4, !tbaa !46
  %58 = load ptr, ptr %3, align 8, !tbaa !8
  %59 = getelementptr inbounds nuw %struct.Ssw_Cla_t_, ptr %58, i32 0, i32 2
  %60 = load ptr, ptr %59, align 8, !tbaa !18
  %61 = load ptr, ptr %5, align 8, !tbaa !48
  %62 = getelementptr inbounds nuw %struct.Aig_Obj_t_, ptr %61, i32 0, i32 5
  %63 = load i32, ptr %62, align 4, !tbaa !50
  %64 = sext i32 %63 to i64
  %65 = getelementptr inbounds i32, ptr %60, i64 %64
  store i32 0, ptr %65, align 4, !tbaa !33
  %66 = load ptr, ptr %3, align 8, !tbaa !8
  %67 = getelementptr inbounds nuw %struct.Ssw_Cla_t_, ptr %66, i32 0, i32 6
  %68 = load i32, ptr %67, align 4, !tbaa !47
  %69 = add nsw i32 %68, -1
  store i32 %69, ptr %67, align 4, !tbaa !47
  br label %138

70:                                               ; preds = %30
  call void @llvm.lifetime.start.p0(i64 4, ptr %8) #11
  call void @llvm.lifetime.start.p0(i64 4, ptr %9) #11
  store i32 0, ptr %9, align 4, !tbaa !33
  store i32 0, ptr %8, align 4, !tbaa !33
  br label %71

71:                                               ; preds = %120, %70
  %72 = load i32, ptr %8, align 4, !tbaa !33
  %73 = load ptr, ptr %3, align 8, !tbaa !8
  %74 = getelementptr inbounds nuw %struct.Ssw_Cla_t_, ptr %73, i32 0, i32 2
  %75 = load ptr, ptr %74, align 8, !tbaa !18
  %76 = load ptr, ptr %5, align 8, !tbaa !48
  %77 = getelementptr inbounds nuw %struct.Aig_Obj_t_, ptr %76, i32 0, i32 5
  %78 = load i32, ptr %77, align 4, !tbaa !50
  %79 = sext i32 %78 to i64
  %80 = getelementptr inbounds i32, ptr %75, i64 %79
  %81 = load i32, ptr %80, align 4, !tbaa !33
  %82 = icmp slt i32 %72, %81
  br i1 %82, label %83, label %123

83:                                               ; preds = %71
  %84 = load ptr, ptr %3, align 8, !tbaa !8
  %85 = getelementptr inbounds nuw %struct.Ssw_Cla_t_, ptr %84, i32 0, i32 1
  %86 = load ptr, ptr %85, align 8, !tbaa !17
  %87 = load ptr, ptr %5, align 8, !tbaa !48
  %88 = getelementptr inbounds nuw %struct.Aig_Obj_t_, ptr %87, i32 0, i32 5
  %89 = load i32, ptr %88, align 4, !tbaa !50
  %90 = sext i32 %89 to i64
  %91 = getelementptr inbounds ptr, ptr %86, i64 %90
  %92 = load ptr, ptr %91, align 8, !tbaa !51
  %93 = load i32, ptr %8, align 4, !tbaa !33
  %94 = sext i32 %93 to i64
  %95 = getelementptr inbounds ptr, ptr %92, i64 %94
  %96 = load ptr, ptr %95, align 8, !tbaa !48
  store ptr %96, ptr %6, align 8, !tbaa !48
  %97 = icmp eq ptr %96, null
  br i1 %97, label %98, label %99

98:                                               ; preds = %83
  br label %119

99:                                               ; preds = %83
  %100 = load ptr, ptr %6, align 8, !tbaa !48
  %101 = load ptr, ptr %4, align 8, !tbaa !48
  %102 = icmp ne ptr %100, %101
  br i1 %102, label %103, label %118

103:                                              ; preds = %99
  %104 = load ptr, ptr %6, align 8, !tbaa !48
  %105 = load ptr, ptr %3, align 8, !tbaa !8
  %106 = getelementptr inbounds nuw %struct.Ssw_Cla_t_, ptr %105, i32 0, i32 1
  %107 = load ptr, ptr %106, align 8, !tbaa !17
  %108 = load ptr, ptr %5, align 8, !tbaa !48
  %109 = getelementptr inbounds nuw %struct.Aig_Obj_t_, ptr %108, i32 0, i32 5
  %110 = load i32, ptr %109, align 4, !tbaa !50
  %111 = sext i32 %110 to i64
  %112 = getelementptr inbounds ptr, ptr %107, i64 %111
  %113 = load ptr, ptr %112, align 8, !tbaa !51
  %114 = load i32, ptr %9, align 4, !tbaa !33
  %115 = add nsw i32 %114, 1
  store i32 %115, ptr %9, align 4, !tbaa !33
  %116 = sext i32 %114 to i64
  %117 = getelementptr inbounds ptr, ptr %113, i64 %116
  store ptr %104, ptr %117, align 8, !tbaa !48
  br label %118

118:                                              ; preds = %103, %99
  br label %119

119:                                              ; preds = %118, %98
  br label %120

120:                                              ; preds = %119
  %121 = load i32, ptr %8, align 4, !tbaa !33
  %122 = add nsw i32 %121, 1
  store i32 %122, ptr %8, align 4, !tbaa !33
  br label %71, !llvm.loop !63

123:                                              ; preds = %71
  %124 = load ptr, ptr %3, align 8, !tbaa !8
  %125 = getelementptr inbounds nuw %struct.Ssw_Cla_t_, ptr %124, i32 0, i32 2
  %126 = load ptr, ptr %125, align 8, !tbaa !18
  %127 = load ptr, ptr %5, align 8, !tbaa !48
  %128 = getelementptr inbounds nuw %struct.Aig_Obj_t_, ptr %127, i32 0, i32 5
  %129 = load i32, ptr %128, align 4, !tbaa !50
  %130 = sext i32 %129 to i64
  %131 = getelementptr inbounds i32, ptr %126, i64 %130
  %132 = load i32, ptr %131, align 4, !tbaa !33
  %133 = add nsw i32 %132, -1
  store i32 %133, ptr %131, align 4, !tbaa !33
  %134 = load ptr, ptr %3, align 8, !tbaa !8
  %135 = getelementptr inbounds nuw %struct.Ssw_Cla_t_, ptr %134, i32 0, i32 6
  %136 = load i32, ptr %135, align 4, !tbaa !47
  %137 = add nsw i32 %136, -1
  store i32 %137, ptr %135, align 4, !tbaa !47
  call void @llvm.lifetime.end.p0(i64 4, ptr %9) #11
  call void @llvm.lifetime.end.p0(i64 4, ptr %8) #11
  br label %138

138:                                              ; preds = %123, %45
  store i32 0, ptr %7, align 4
  br label %139

139:                                              ; preds = %138, %21
  call void @llvm.lifetime.end.p0(i64 8, ptr %6) #11
  call void @llvm.lifetime.end.p0(i64 8, ptr %5) #11
  %140 = load i32, ptr %7, align 4
  switch i32 %140, label %142 [
    i32 0, label %141
    i32 1, label %141
  ]

141:                                              ; preds = %139, %139
  ret void

142:                                              ; preds = %139
  unreachable
}