; Function Attrs: nofree norecurse nosync nounwind memory(readwrite, inaccessiblemem: none) uwtable
define void @Ssw_ClassesRemoveNode(ptr noundef captures(none) %0, ptr noundef readonly %1) local_unnamed_addr #13 {
  %3 = load ptr, ptr %0, align 8, !tbaa !3
  %4 = getelementptr i8, ptr %3, i64 256
  %.val = load ptr, ptr %4, align 8, !tbaa !33
  %.not.i = icmp eq ptr %.val, null
  br i1 %.not.i, label %Ssw_ObjIsConst1Cand.exit, label %5

5:                                                ; preds = %2
  %6 = getelementptr inbounds nuw i8, ptr %1, i64 36
  %7 = load i32, ptr %6, align 4, !tbaa !42
  %8 = sext i32 %7 to i64
  %9 = getelementptr inbounds ptr, ptr %.val, i64 %8
  %10 = load ptr, ptr %9, align 8, !tbaa !45
  br label %Ssw_ObjIsConst1Cand.exit

Ssw_ObjIsConst1Cand.exit:                         ; preds = %2, %5
  %11 = phi ptr [ %10, %5 ], [ null, %2 ]
  %12 = getelementptr i8, ptr %3, i64 48
  %.val3.i = load ptr, ptr %12, align 8, !tbaa !55
  %.not = icmp eq ptr %11, %.val3.i
  %13 = getelementptr i8, ptr %1, i64 36
  %.val37 = load i32, ptr %13, align 4, !tbaa !42
  %14 = sext i32 %.val37 to i64
  %15 = getelementptr inbounds ptr, ptr %.val, i64 %14
  store ptr null, ptr %15, align 8, !tbaa !45
  br i1 %.not, label %16, label %20

16:                                               ; preds = %Ssw_ObjIsConst1Cand.exit
  %17 = getelementptr inbounds nuw i8, ptr %0, i64 32
  %18 = load i32, ptr %17, align 8, !tbaa !39
  %19 = add nsw i32 %18, -1
  store i32 %19, ptr %17, align 8, !tbaa !39
  br label %57

20:                                               ; preds = %Ssw_ObjIsConst1Cand.exit
  %21 = getelementptr inbounds nuw i8, ptr %0, i64 16
  %22 = load ptr, ptr %21, align 8, !tbaa !27
  %23 = getelementptr inbounds nuw i8, ptr %11, i64 36
  %24 = load i32, ptr %23, align 4, !tbaa !42
  %25 = sext i32 %24 to i64
  %26 = getelementptr inbounds i32, ptr %22, i64 %25
  %27 = load i32, ptr %26, align 4, !tbaa !44
  %28 = icmp eq i32 %27, 2
  br i1 %28, label %34, label %.preheader

.preheader:                                       ; preds = %20
  %29 = icmp sgt i32 %27, 0
  br i1 %29, label %.lr.ph, label %._crit_edge

.lr.ph:                                           ; preds = %.preheader
  %30 = getelementptr inbounds nuw i8, ptr %0, i64 8
  %31 = load ptr, ptr %30, align 8, !tbaa !26
  %32 = getelementptr inbounds ptr, ptr %31, i64 %25
  %33 = load ptr, ptr %32, align 8, !tbaa !43
  %wide.trip.count = zext nneg i32 %27 to i64
  br label %44

34:                                               ; preds = %20
  %35 = getelementptr inbounds nuw i8, ptr %0, i64 8
  %36 = load ptr, ptr %35, align 8, !tbaa !26
  %37 = getelementptr inbounds ptr, ptr %36, i64 %25
  store ptr null, ptr %37, align 8, !tbaa !43
  %38 = getelementptr inbounds nuw i8, ptr %0, i64 28
  %39 = load i32, ptr %38, align 4, !tbaa !40
  %40 = add nsw i32 %39, -1
  store i32 %40, ptr %38, align 4, !tbaa !40
  store i32 0, ptr %26, align 4, !tbaa !44
  %41 = getelementptr inbounds nuw i8, ptr %0, i64 36
  %42 = load i32, ptr %41, align 4, !tbaa !41
  %43 = add nsw i32 %42, -1
  store i32 %43, ptr %41, align 4, !tbaa !41
  br label %57

44:                                               ; preds = %.lr.ph, %52
  %indvars.iv = phi i64 [ 0, %.lr.ph ], [ %indvars.iv.next, %52 ]
  %.041 = phi i32 [ 0, %.lr.ph ], [ %.1, %52 ]
  %45 = getelementptr inbounds nuw ptr, ptr %33, i64 %indvars.iv
  %46 = load ptr, ptr %45, align 8, !tbaa !45
  %47 = icmp eq ptr %46, null
  %.not35 = icmp eq ptr %46, %1
  %or.cond = or i1 %47, %.not35
  br i1 %or.cond, label %52, label %48

48:                                               ; preds = %44
  %49 = add nsw i32 %.041, 1
  %50 = sext i32 %.041 to i64
  %51 = getelementptr inbounds ptr, ptr %33, i64 %50
  store ptr %46, ptr %51, align 8, !tbaa !45
  br label %52

52:                                               ; preds = %44, %48
  %.1 = phi i32 [ %.041, %44 ], [ %49, %48 ]
  %indvars.iv.next = add nuw nsw i64 %indvars.iv, 1
  %exitcond.not = icmp eq i64 %indvars.iv.next, %wide.trip.count
  br i1 %exitcond.not, label %._crit_edge, label %44, !llvm.loop !58

._crit_edge:                                      ; preds = %52, %.preheader
  %53 = add nsw i32 %27, -1
  store i32 %53, ptr %26, align 4, !tbaa !44
  %54 = getelementptr inbounds nuw i8, ptr %0, i64 36
  %55 = load i32, ptr %54, align 4, !tbaa !41
  %56 = add nsw i32 %55, -1
  store i32 %56, ptr %54, align 4, !tbaa !41
  br label %57

57:                                               ; preds = %34, %._crit_edge, %16
  ret void
}